target datalayout = "e-m:e-p270:32:32-p271:32:32-p272:64:64-i64:64-i128:128-f80:128-n8:16:32:64-S128"
target triple = "x86_64-unknown-linux-gnu"

%"class.zmq::stream_engine_base_t" = type <{ %"class.zmq::io_object_t", %"struct.zmq::i_engine", %"struct.zmq::options_t", ptr, i64, ptr, ptr, i64, ptr, ptr, { i64, i64 }, { i64, i64 }, ptr, i8, i8, [6 x i8], %"struct.zmq::endpoint_uri_pair_t", i8, i8, i8, i8, [4 x i8], %"class.std::__cxx11::basic_string", i32, [4 x i8], ptr, i8, i8, [6 x i8], %"class.zmq::msg_t", i8, [7 x i8], ptr, ptr, i8, [7 x i8] }>
%"class.zmq::io_object_t" = type { %"struct.zmq::i_poll_events", ptr }
%"struct.zmq::i_poll_events" = type { ptr }
%"struct.zmq::i_engine" = type { ptr }
%"struct.zmq::options_t" = type { i32, i32, i64, i8, [256 x i8], i32, i32, i32, i32, i32, i32, i32, i32, i8, %"struct.zmq::atomic_value_t", i32, i32, i32, i32, i32, i32, i64, i32, i32, i8, i32, i8, i8, i8, i8, i8, %"class.std::__cxx11::basic_string", %"class.std::__cxx11::basic_string", %"class.std::__cxx11::basic_string", i32, i32, i32, i32, %"class.std::vector", %"class.std::set", %"class.std::set", %"class.std::set.6", i32, i32, %"class.std::__cxx11::basic_string", %"class.std::__cxx11::basic_string", %"class.std::__cxx11::basic_string", [32 x i8], [32 x i8], [32 x i8], %"class.std::__cxx11::basic_string", %"class.std::__cxx11::basic_string", i32, i32, i8, i32, i8, i32, i8, i16, i32, i32, i32, %"class.std::__cxx11::basic_string", i8, i8, i8, i32, i32, i8, i32, %"class.std::map", i32, %"class.std::__cxx11::basic_string", %"class.std::__cxx11::basic_string", %"class.std::__cxx11::basic_string", %"class.std::__cxx11::basic_string", i8, %"class.std::vector.21", i8, %"class.std::vector.21", i8, %"class.std::vector.21", i8, i32, i8, i32, i32, i32, i32, i32, i8, i32 }
%"struct.zmq::atomic_value_t" = type { %"struct.std::atomic" }
%"struct.std::atomic" = type { %"struct.std::__atomic_base" }
%"struct.std::__atomic_base" = type { i32 }
%"class.std::vector" = type { %"struct.std::_Vector_base" }
%"struct.std::_Vector_base" = type { %"struct.std::_Vector_base<zmq::tcp_address_mask_t, std::allocator<zmq::tcp_address_mask_t>>::_Vector_impl" }
%"struct.std::_Vector_base<zmq::tcp_address_mask_t, std::allocator<zmq::tcp_address_mask_t>>::_Vector_impl" = type { %"struct.std::_Vector_base<zmq::tcp_address_mask_t, std::allocator<zmq::tcp_address_mask_t>>::_Vector_impl_data" }
%"struct.std::_Vector_base<zmq::tcp_address_mask_t, std::allocator<zmq::tcp_address_mask_t>>::_Vector_impl_data" = type { ptr, ptr, ptr }
%"class.std::set" = type { %"class.std::_Rb_tree" }
%"class.std::_Rb_tree" = type { %"struct.std::_Rb_tree<unsigned int, unsigned int, std::_Identity<unsigned int>, std::less<unsigned int>>::_Rb_tree_impl" }
%"struct.std::_Rb_tree<unsigned int, unsigned int, std::_Identity<unsigned int>, std::less<unsigned int>>::_Rb_tree_impl" = type { %"struct.std::_Rb_tree_key_compare", %"struct.std::_Rb_tree_header" }
%"struct.std::_Rb_tree_key_compare" = type { %"struct.std::less" }
%"struct.std::less" = type { i8 }
%"struct.std::_Rb_tree_header" = type { %"struct.std::_Rb_tree_node_base", i64 }
%"struct.std::_Rb_tree_node_base" = type { i32, ptr, ptr, ptr }
%"class.std::set.6" = type { %"class.std::_Rb_tree.7" }
%"class.std::_Rb_tree.7" = type { %"struct.std::_Rb_tree<int, int, std::_Identity<int>, std::less<int>>::_Rb_tree_impl" }
%"struct.std::_Rb_tree<int, int, std::_Identity<int>, std::less<int>>::_Rb_tree_impl" = type { %"struct.std::_Rb_tree_key_compare.11", %"struct.std::_Rb_tree_header" }
%"struct.std::_Rb_tree_key_compare.11" = type { %"struct.std::less.12" }
%"struct.std::less.12" = type { i8 }
%"class.std::map" = type { %"class.std::_Rb_tree.14" }
%"class.std::_Rb_tree.14" = type { %"struct.std::_Rb_tree<std::__cxx11::basic_string<char>, std::pair<const std::__cxx11::basic_string<char>, std::__cxx11::basic_string<char>>, std::_Select1st<std::pair<const std::__cxx11::basic_string<char>, std::__cxx11::basic_string<char>>>, std::less<std::__cxx11::basic_string<char>>>::_Rb_tree_impl" }
%"struct.std::_Rb_tree<std::__cxx11::basic_string<char>, std::pair<const std::__cxx11::basic_string<char>, std::__cxx11::basic_string<char>>, std::_Select1st<std::pair<const std::__cxx11::basic_string<char>, std::__cxx11::basic_string<char>>>, std::less<std::__cxx11::basic_string<char>>>::_Rb_tree_impl" = type { %"struct.std::_Rb_tree_key_compare.18", %"struct.std::_Rb_tree_header" }
%"struct.std::_Rb_tree_key_compare.18" = type { %"struct.std::less.19" }
%"struct.std::less.19" = type { i8 }
%"class.std::vector.21" = type { %"struct.std::_Vector_base.22" }
%"struct.std::_Vector_base.22" = type { %"struct.std::_Vector_base<unsigned char, std::allocator<unsigned char>>::_Vector_impl" }
%"struct.std::_Vector_base<unsigned char, std::allocator<unsigned char>>::_Vector_impl" = type { %"struct.std::_Vector_base<unsigned char, std::allocator<unsigned char>>::_Vector_impl_data" }
%"struct.std::_Vector_base<unsigned char, std::allocator<unsigned char>>::_Vector_impl_data" = type { ptr, ptr, ptr }
%"struct.zmq::endpoint_uri_pair_t" = type <{ %"class.std::__cxx11::basic_string", %"class.std::__cxx11::basic_string", i32, [4 x i8] }>
%"class.std::__cxx11::basic_string" = type { %"struct.std::__cxx11::basic_string<char>::_Alloc_hider", i64, %union.anon }
%"struct.std::__cxx11::basic_string<char>::_Alloc_hider" = type { ptr }
%union.anon = type { i64, [8 x i8] }
%"class.zmq::msg_t" = type { %union.anon.26 }
%union.anon.26 = type { %struct.anon }
%struct.anon = type { ptr, [34 x i8], i8, i8, i32, %"union.zmq::msg_t::group_t" }
%"union.zmq::msg_t::group_t" = type { %struct.anon.28 }
%struct.anon.28 = type { i8, ptr }

@stderr = external global ptr, align 8
@.str.1 = private unnamed_addr constant [118 x i8] c"generated/home/dtcxzyw/WorkSpace/Projects/compilers/llvm-opt-benchmark/bench/libzmq/libzmq/src/stream_engine_base.cpp\00", align 1
@.str.2 = private unnamed_addr constant [30 x i8] c"Assertion failed: %s (%s:%d)\0A\00", align 1
@.str.15 = private unnamed_addr constant [19 x i8] c"_mechanism != NULL\00", align 1

; Function Attrs: mustprogress uwtable
define noundef i32 @_ZN3zmq20stream_engine_base_t15decode_and_pushEPNS_5msg_tE(ptr noundef nonnull align 8 dereferenceable(1689) %this, ptr noundef %msg_) unnamed_addr #0 align 2 {
entry:
  %retval = alloca i32, align 4
  %this.addr = alloca ptr, align 8
  %msg_.addr = alloca ptr, align 8
  store ptr %this, ptr %this.addr, align 8
  store ptr %msg_, ptr %msg_.addr, align 8
  %this1 = load ptr, ptr %this.addr, align 8
  br label %do.body

do.body:                                          ; preds = %entry
  %_mechanism = getelementptr inbounds %"class.zmq::stream_engine_base_t", ptr %this1, i32 0, i32 9
  %0 = load ptr, ptr %_mechanism, align 8
  %cmp = icmp ne ptr %0, null
  %lnot = xor i1 %cmp, true
  br i1 %lnot, label %if.then, label %if.end

if.then:                                          ; preds = %do.body
  %1 = load ptr, ptr @stderr, align 8
  %call = call i32 (ptr, ptr, ...) @fprintf(ptr noundef %1, ptr noundef @.str.2, ptr noundef @.str.15, ptr noundef @.str.1, i32 noundef 620)
  %2 = load ptr, ptr @stderr, align 8
  %call2 = call i32 @fflush(ptr noundef %2)
  call void @_ZN3zmq9zmq_abortEPKc(ptr noundef @.str.15)
  br label %if.end

if.end:                                           ; preds = %if.then, %do.body
  br label %do.end

do.end:                                           ; preds = %if.end
  %_mechanism3 = getelementptr inbounds %"class.zmq::stream_engine_base_t", ptr %this1, i32 0, i32 9
  %3 = load ptr, ptr %_mechanism3, align 8
  %4 = load ptr, ptr %msg_.addr, align 8
  %vtable = load ptr, ptr %3, align 8
  %vfn = getelementptr inbounds ptr, ptr %vtable, i64 5
  %5 = load ptr, ptr %vfn, align 8
  %call4 = call noundef i32 %5(ptr noundef nonnull align 8 dereferenceable(1488) %3, ptr noundef %4)
  %cmp5 = icmp eq i32 %call4, -1
  br i1 %cmp5, label %if.then6, label %if.end7

if.then6:                                         ; preds = %do.end
  store i32 -1, ptr %retval, align 4
  br label %return

if.end7:                                          ; preds = %do.end
  %_has_timeout_timer = getelementptr inbounds %"class.zmq::stream_engine_base_t", ptr %this1, i32 0, i32 19
  %6 = load i8, ptr %_has_timeout_timer, align 2
  %tobool = trunc i8 %6 to i1
  br i1 %tobool, label %if.then8, label %if.end10

if.then8:                                         ; preds = %if.end7
  %_has_timeout_timer9 = getelementptr inbounds %"class.zmq::stream_engine_base_t", ptr %this1, i32 0, i32 19
  store i8 0, ptr %_has_timeout_timer9, align 2
  call void @_ZN3zmq11io_object_t12cancel_timerEi(ptr noundef nonnull align 8 dereferenceable(16) %this1, i32 noundef 129)
  br label %if.end10

if.end10:                                         ; preds = %if.then8, %if.end7
  %_has_ttl_timer = getelementptr inbounds %"class.zmq::stream_engine_base_t", ptr %this1, i32 0, i32 18
  %7 = load i8, ptr %_has_ttl_timer, align 1
  %tobool11 = trunc i8 %7 to i1
  br i1 %tobool11, label %if.then12, label %if.end14

if.then12:                                        ; preds = %if.end10
  %_has_ttl_timer13 = getelementptr inbounds %"class.zmq::stream_engine_base_t", ptr %this1, i32 0, i32 18
  store i8 0, ptr %_has_ttl_timer13, align 1
  call void @_ZN3zmq11io_object_t12cancel_timerEi(ptr noundef nonnull align 8 dereferenceable(16) %this1, i32 noundef 130)
  br label %if.end14

if.end14:                                         ; preds = %if.then12, %if.end10
  %8 = load ptr, ptr %msg_.addr, align 8
  %call15 = call noundef zeroext i8 @_ZNK3zmq5msg_t5flagsEv(ptr noundef nonnull align 8 dereferenceable(64) %8)
  %conv = zext i8 %call15 to i32
  %and = and i32 %conv, 2
  %tobool16 = icmp ne i32 %and, 0
  br i1 %tobool16, label %if.then17, label %if.end21

if.then17:                                        ; preds = %if.end14
  %9 = load ptr, ptr %msg_.addr, align 8
  %vtable18 = load ptr, ptr %this1, align 8
  %vfn19 = getelementptr inbounds ptr, ptr %vtable18, i64 16
  %10 = load ptr, ptr %vfn19, align 8
  %call20 = call noundef i32 %10(ptr noundef nonnull align 8 dereferenceable(1689) %this1, ptr noundef %9)
  br label %if.end21

if.end21:                                         ; preds = %if.then17, %if.end14
  %_metadata = getelementptr inbounds %"class.zmq::stream_engine_base_t", ptr %this1, i32 0, i32 12
  %11 = load ptr, ptr %_metadata, align 8
  %tobool22 = icmp ne ptr %11, null
  br i1 %tobool22, label %if.then23, label %if.end25

if.then23:                                        ; preds = %if.end21
  %12 = load ptr, ptr %msg_.addr, align 8
  %_metadata24 = getelementptr inbounds %"class.zmq::stream_engine_base_t", ptr %this1, i32 0, i32 12
  %13 = load ptr, ptr %_metadata24, align 8
  call void @_ZN3zmq5msg_t12set_metadataEPNS_10metadata_tE(ptr noundef nonnull align 8 dereferenceable(64) %12, ptr noundef %13)
  br label %if.end25

if.end25:                                         ; preds = %if.then23, %if.end21
  %_session = getelementptr inbounds %"class.zmq::stream_engine_base_t", ptr %this1, i32 0, i32 32
  %14 = load ptr, ptr %_session, align 8
  %15 = load ptr, ptr %msg_.addr, align 8
  %vtable26 = load ptr, ptr %14, align 8
  %vfn27 = getelementptr inbounds ptr, ptr %vtable26, i64 29
  %16 = load ptr, ptr %vfn27, align 8
  %call28 = call noundef i32 %16(ptr noundef nonnull align 8 dereferenceable(1624) %14, ptr noundef %15)
  %cmp29 = icmp eq i32 %call28, -1
  br i1 %cmp29, label %if.then30, label %if.end35

if.then30:                                        ; preds = %if.end25
  %call31 = call ptr @__errno_location() #16
  %17 = load i32, ptr %call31, align 4
  %cmp32 = icmp eq i32 %17, 11
  br i1 %cmp32, label %if.then33, label %if.end34

if.then33:                                        ; preds = %if.then30
  %_process_msg = getelementptr inbounds %"class.zmq::stream_engine_base_t", ptr %this1, i32 0, i32 11
  store { i64, i64 } { i64 ptrtoint (ptr @_ZN3zmq20stream_engine_base_t29push_one_then_decode_and_pushEPNS_5msg_tE to i64), i64 0 }, ptr %_process_msg, align 8
  br label %if.end34

if.end34:                                         ; preds = %if.then33, %if.then30
  store i32 -1, ptr %retval, align 4
  br label %return

if.end35:                                         ; preds = %if.end25
  store i32 0, ptr %retval, align 4
  br label %return

return:                                           ; preds = %if.end35, %if.end34, %if.then6
  %18 = load i32, ptr %retval, align 4
  ret i32 %18
}