; Function Attrs: mustprogress uwtable
define noundef i32 @_ZN3zmq20stream_engine_base_t15decode_and_pushEPNS_5msg_tE(ptr noundef nonnull align 8 dereferenceable(1689) %this, ptr noundef %msg_) unnamed_addr #0 align 2 {
entry:
  %_mechanism = getelementptr inbounds i8, ptr %this, i64 1408
  %0 = load ptr, ptr %_mechanism, align 8
  %cmp.not = icmp eq ptr %0, null
  br i1 %cmp.not, label %if.then, label %do.end

if.then:                                          ; preds = %entry
  %1 = load ptr, ptr @stderr, align 8
  %call = tail call i32 (ptr, ptr, ...) @fprintf(ptr noundef %1, ptr noundef nonnull @.str.2, ptr noundef nonnull @.str.15, ptr noundef nonnull @.str.1, i32 noundef 620) #21
  %2 = load ptr, ptr @stderr, align 8
  %call2 = tail call i32 @fflush(ptr noundef %2)
  tail call void @_ZN3zmq9zmq_abortEPKc(ptr noundef nonnull @.str.15)
  %.pre = load ptr, ptr %_mechanism, align 8
  br label %do.end

do.end:                                           ; preds = %entry, %if.then
  %3 = phi ptr [ %0, %entry ], [ %.pre, %if.then ]
  %vtable = load ptr, ptr %3, align 8
  %vfn = getelementptr inbounds i8, ptr %vtable, i64 40
  %4 = load ptr, ptr %vfn, align 8
  %call4 = tail call noundef i32 %4(ptr noundef nonnull align 8 dereferenceable(1488) %3, ptr noundef %msg_)
  %cmp5 = icmp eq i32 %call4, -1
  br i1 %cmp5, label %return, label %if.end7

if.end7:                                          ; preds = %do.end
  %_has_timeout_timer = getelementptr inbounds i8, ptr %this, i64 1538
  %5 = load i8, ptr %_has_timeout_timer, align 2
  %6 = and i8 %5, 1
  %tobool.not = icmp eq i8 %6, 0
  br i1 %tobool.not, label %if.end10, label %if.then8

if.then8:                                         ; preds = %if.end7
  store i8 0, ptr %_has_timeout_timer, align 2
  tail call void @_ZN3zmq11io_object_t12cancel_timerEi(ptr noundef nonnull align 8 dereferenceable(16) %this, i32 noundef 129)
  br label %if.end10

if.end10:                                         ; preds = %if.then8, %if.end7
  %_has_ttl_timer = getelementptr inbounds i8, ptr %this, i64 1537
  %7 = load i8, ptr %_has_ttl_timer, align 1
  %8 = and i8 %7, 1
  %tobool11.not = icmp eq i8 %8, 0
  br i1 %tobool11.not, label %if.end14, label %if.then12

if.then12:                                        ; preds = %if.end10
  store i8 0, ptr %_has_ttl_timer, align 1
  tail call void @_ZN3zmq11io_object_t12cancel_timerEi(ptr noundef nonnull align 8 dereferenceable(16) %this, i32 noundef 130)
  br label %if.end14

if.end14:                                         ; preds = %if.then12, %if.end10
  %call15 = tail call noundef zeroext i8 @_ZNK3zmq5msg_t5flagsEv(ptr noundef nonnull align 8 dereferenceable(64) %msg_)
  %9 = and i8 %call15, 2
  %tobool16.not = icmp eq i8 %9, 0
  br i1 %tobool16.not, label %if.end21, label %if.then17

if.then17:                                        ; preds = %if.end14
  %vtable18 = load ptr, ptr %this, align 8
  %vfn19 = getelementptr inbounds i8, ptr %vtable18, i64 128
  %10 = load ptr, ptr %vfn19, align 8
  %call20 = tail call noundef i32 %10(ptr noundef nonnull align 8 dereferenceable(1689) %this, ptr noundef nonnull %msg_)
  br label %if.end21

if.end21:                                         ; preds = %if.then17, %if.end14
  %_metadata = getelementptr inbounds i8, ptr %this, i64 1448
  %11 = load ptr, ptr %_metadata, align 8
  %tobool22.not = icmp eq ptr %11, null
  br i1 %tobool22.not, label %if.end25, label %if.then23

if.then23:                                        ; preds = %if.end21
  tail call void @_ZN3zmq5msg_t12set_metadataEPNS_10metadata_tE(ptr noundef nonnull align 8 dereferenceable(64) %msg_, ptr noundef nonnull %11)
  br label %if.end25

if.end25:                                         ; preds = %if.then23, %if.end21
  %_session = getelementptr inbounds i8, ptr %this, i64 1672
  %12 = load ptr, ptr %_session, align 8
  %vtable26 = load ptr, ptr %12, align 8
  %vfn27 = getelementptr inbounds i8, ptr %vtable26, i64 232
  %13 = load ptr, ptr %vfn27, align 8
  %call28 = tail call noundef i32 %13(ptr noundef nonnull align 8 dereferenceable(1624) %12, ptr noundef nonnull %msg_)
  %cmp29 = icmp eq i32 %call28, -1
  br i1 %cmp29, label %if.then30, label %return

if.then30:                                        ; preds = %if.end25
  %call31 = tail call ptr @__errno_location() #20
  %14 = load i32, ptr %call31, align 4
  %cmp32 = icmp eq i32 %14, 11
  br i1 %cmp32, label %if.then33, label %return

if.then33:                                        ; preds = %if.then30
  %_process_msg = getelementptr inbounds i8, ptr %this, i64 1432
  store i64 ptrtoint (ptr @_ZN3zmq20stream_engine_base_t29push_one_then_decode_and_pushEPNS_5msg_tE to i64), ptr %_process_msg, align 8
  %_process_msg.repack5 = getelementptr inbounds i8, ptr %this, i64 1440
  store i64 0, ptr %_process_msg.repack5, align 8
  br label %return

return:                                           ; preds = %if.end25, %if.then30, %if.then33, %do.end
  %retval.0 = phi i32 [ -1, %do.end ], [ -1, %if.then33 ], [ -1, %if.then30 ], [ 0, %if.end25 ]
  ret i32 %retval.0
}